target datalayout = "e-m:e-p270:32:32-p271:32:32-p272:64:64-i64:64-i128:128-f80:128-n8:16:32:64-S128"
target triple = "x86_64-pc-linux-gnu"

%class.ABstats = type { [8 x %"class.std::__cxx11::basic_string"], %struct.ABtracker, %struct.ABtracker, [2 x %struct.ABtracker], [8 x %struct.ABtracker] }
%"class.std::__cxx11::basic_string" = type { %"struct.std::__cxx11::basic_string<char>::_Alloc_hider", i64, %union.anon }
%"struct.std::__cxx11::basic_string<char>::_Alloc_hider" = type { ptr }
%union.anon = type { i64, [8 x i8] }
%struct.ABtracker = type { [49 x i32], i32, i32, i32, i32 }

; Function Attrs: mustprogress nounwind uwtable
define void @_ZN7ABstats8ResetCumEv(ptr noundef nonnull align 8 dereferenceable(2800) %0) #5 align 2 {
  %2 = alloca ptr, align 8
  %3 = alloca i32, align 4
  %4 = alloca i32, align 4
  store ptr %0, ptr %2, align 8
  %5 = load ptr, ptr %2, align 8
  %6 = getelementptr inbounds nuw %class.ABstats, ptr %5, i32 0, i32 2
  %7 = getelementptr inbounds nuw %struct.ABtracker, ptr %6, i32 0, i32 3
  store i32 0, ptr %7, align 4
  %8 = getelementptr inbounds nuw %class.ABstats, ptr %5, i32 0, i32 2
  %9 = getelementptr inbounds nuw %struct.ABtracker, ptr %8, i32 0, i32 4
  store i32 0, ptr %9, align 4
  store i32 0, ptr %3, align 4
  br label %10

10:                                               ; preds = %24, %1
  %11 = load i32, ptr %3, align 4
  %12 = icmp slt i32 %11, 2
  br i1 %12, label %13, label %27

13:                                               ; preds = %10
  %14 = getelementptr inbounds nuw %class.ABstats, ptr %5, i32 0, i32 3
  %15 = load i32, ptr %3, align 4
  %16 = sext i32 %15 to i64
  %17 = getelementptr inbounds [2 x %struct.ABtracker], ptr %14, i64 0, i64 %16
  %18 = getelementptr inbounds nuw %struct.ABtracker, ptr %17, i32 0, i32 3
  store i32 0, ptr %18, align 4
  %19 = getelementptr inbounds nuw %class.ABstats, ptr %5, i32 0, i32 3
  %20 = load i32, ptr %3, align 4
  %21 = sext i32 %20 to i64
  %22 = getelementptr inbounds [2 x %struct.ABtracker], ptr %19, i64 0, i64 %21
  %23 = getelementptr inbounds nuw %struct.ABtracker, ptr %22, i32 0, i32 4
  store i32 0, ptr %23, align 4
  br label %24

24:                                               ; preds = %13
  %25 = load i32, ptr %3, align 4
  %26 = add nsw i32 %25, 1
  store i32 %26, ptr %3, align 4
  br label %10, !llvm.loop !10

27:                                               ; preds = %10
  store i32 0, ptr %4, align 4
  br label %28

28:                                               ; preds = %42, %27
  %29 = load i32, ptr %4, align 4
  %30 = icmp slt i32 %29, 8
  br i1 %30, label %31, label %45

31:                                               ; preds = %28
  %32 = getelementptr inbounds nuw %class.ABstats, ptr %5, i32 0, i32 4
  %33 = load i32, ptr %4, align 4
  %34 = sext i32 %33 to i64
  %35 = getelementptr inbounds [8 x %struct.ABtracker], ptr %32, i64 0, i64 %34
  %36 = getelementptr inbounds nuw %struct.ABtracker, ptr %35, i32 0, i32 3
  store i32 0, ptr %36, align 4
  %37 = getelementptr inbounds nuw %class.ABstats, ptr %5, i32 0, i32 4
  %38 = load i32, ptr %4, align 4
  %39 = sext i32 %38 to i64
  %40 = getelementptr inbounds [8 x %struct.ABtracker], ptr %37, i64 0, i64 %39
  %41 = getelementptr inbounds nuw %struct.ABtracker, ptr %40, i32 0, i32 4
  store i32 0, ptr %41, align 4
  br label %42

42:                                               ; preds = %31
  %43 = load i32, ptr %4, align 4
  %44 = add nsw i32 %43, 1
  store i32 %44, ptr %4, align 4
  br label %28, !llvm.loop !11

45:                                               ; preds = %28
  ret void
}