; Function Attrs: mustprogress nofree norecurse nosync nounwind memory(argmem: write) uwtable
define void @_ZN7ABstats8ResetCumEv(ptr nocapture noundef nonnull writeonly align 8 dereferenceable(2800) %0) local_unnamed_addr #4 align 2 {
.preheader.critedge:
  %1 = getelementptr inbounds i8, ptr %0, i64 672
  store i32 0, ptr %1, align 8
  %2 = getelementptr inbounds i8, ptr %0, i64 676
  store i32 0, ptr %2, align 4
  %3 = getelementptr inbounds i8, ptr %0, i64 884
  store i32 0, ptr %3, align 4
  %4 = getelementptr inbounds i8, ptr %0, i64 888
  store i32 0, ptr %4, align 8
  %5 = getelementptr inbounds i8, ptr %0, i64 1096
  store i32 0, ptr %5, align 8
  %6 = getelementptr inbounds i8, ptr %0, i64 1100
  store i32 0, ptr %6, align 4
  %7 = getelementptr inbounds nuw i8, ptr %0, i64 1104
  br label %8

8:                                                ; preds = %.preheader.critedge, %8
  %indvars.iv12 = phi i64 [ 0, %.preheader.critedge ], [ %indvars.iv.next13, %8 ]
  %9 = getelementptr inbounds [8 x %struct.ABtracker], ptr %7, i64 0, i64 %indvars.iv12
  %10 = getelementptr inbounds nuw i8, ptr %9, i64 204
  store i32 0, ptr %10, align 4
  %11 = getelementptr inbounds nuw i8, ptr %9, i64 208
  store i32 0, ptr %11, align 4
  %indvars.iv.next13 = add nuw nsw i64 %indvars.iv12, 1
  %exitcond.not = icmp eq i64 %indvars.iv.next13, 8
  br i1 %exitcond.not, label %12, label %8, !llvm.loop !6

12:                                               ; preds = %8
  ret void
}